(dp1
S'layout'
p2
(ilayout
Layout
p3
(dp4
S'capsules'
p5
(lp6
(I18
I1
tp7
a(I1
I9
tp8
asS'numGhosts'
p9
I2
sS'food'
p10
(igame
Grid
p11
(dp12
S'CELLS_PER_INT'
p13
I30
sS'width'
p14
I20
sS'data'
p15
(lp16
(lp17
I00
aI00
aI00
aI00
aI00
aI00
aI00
aI00
aI00
aI00
aI00
aa(lp18
I00
aI01
aI01
aI01
aI01
aI01
aI01
aI01
aI01
aI00
aI00
aa(lp19
I00
aI01
aI00
aI00
aI00
aI01
aI00
aI00
aI00
aI01
aI00
aa(lp20
I00
aI01
aI00
aI01
aI01
aI01
aI01
aI01
aI00
aI01
aI00
aa(lp21
I00
aI01
aI01
aI01
aI00
aI01
aI00
aI01
aI01
aI01
aI00
aa(lp22
I00
aI00
aI00
aI01
aI00
aI01
aI00
aI01
aI00
aI00
aI00
aa(lp23
I00
aI01
aI01
aI01
aI01
aI01
aI01
aI01
aI01
aI01
aI00
aa(lp24
I00
aI01
aI00
aI01
aI00
aI00
aI00
aI01
aI00
aI01
aI00
aa(lp25
I00
aI01
aI00
aI01
aI00
aI00
aI00
aI01
aI00
aI01
aI00
aa(lp26
I00
aI00
aI00
aI01
aI00
aI00
aI00
aI01
aI00
aI01
aI00
aa(lp27
I00
aI01
aI00
aI01
aI00
aI00
aI00
aI01
aI00
aI01
aI00
aa(lp28
I00
aI01
aI00
aI01
aI00
aI00
aI00
aI01
aI00
aI01
aI00
aa(lp29
I00
aI01
aI00
aI01
aI00
aI00
aI00
aI01
aI00
aI01
aI00
aa(lp30
I00
aI01
aI01
aI01
aI01
aI01
aI01
aI01
aI01
aI01
aI00
aa(lp31
I00
aI00
aI00
aI01
aI00
aI01
aI00
aI01
aI00
aI00
aI00
aa(lp32
I00
aI01
aI01
aI01
aI00
aI01
aI00
aI01
aI01
aI01
aI00
aa(lp33
I00
aI01
aI00
aI01
aI01
aI01
aI01
aI01
aI00
aI01
aI00
aa(lp34
I00
aI01
aI00
aI00
aI00
aI01
aI00
aI00
aI00
aI01
aI00
aa(lp35
I00
aI00
aI01
aI01
aI01
aI01
aI01
aI01
aI01
aI01
aI00
aa(lp36
I00
aI00
aI00
aI00
aI00
aI00
aI00
aI00
aI00
aI00
aI00
aasS'height'
p37
I11
sbsS'agentPositions'
p38
(lp39
(I01
(I9
I1
tp40
tp41
a(I00
(I8
I5
tp42
tp43
a(I00
(I11
I5
tp44
tp45
asg37
I11
sg14
I20
sS'walls'
p46
(igame
Grid
p47
(dp48
g13
I30
sg14
I20
sg15
(lp49
(lp50
I01
aI01
aI01
aI01
aI01
aI01
aI01
aI01
aI01
aI01
aI01
aa(lp51
I01
aI00
aI00
aI00
aI00
aI00
aI00
aI00
aI00
aI00
aI01
aa(lp52
I01
aI00
aI01
aI01
aI01
aI00
aI01
aI01
aI01
aI00
aI01
aa(lp53
I01
aI00
aI01
aI00
aI00
aI00
aI00
aI00
aI01
aI00
aI01
aa(lp54
I01
aI00
aI00
aI00
aI01
aI00
aI01
aI00
aI00
aI00
aI01
aa(lp55
I01
aI01
aI01
aI00
aI01
aI00
aI01
aI00
aI01
aI01
aI01
aa(lp56
I01
aI00
aI00
aI00
aI00
aI00
aI00
aI00
aI00
aI00
aI01
aa(lp57
I01
aI00
aI01
aI00
aI01
aI01
aI01
aI00
aI01
aI00
aI01
aa(lp58
I01
aI00
aI01
aI00
aI01
aI00
aI01
aI00
aI01
aI00
aI01
aa(lp59
I01
aI00
aI01
aI00
aI01
aI00
aI00
aI00
aI01
aI00
aI01
aa(lp60
I01
aI00
aI01
aI00
aI01
aI00
aI00
aI00
aI01
aI00
aI01
aa(lp61
I01
aI00
aI01
aI00
aI01
aI00
aI01
aI00
aI01
aI00
aI01
aa(lp62
I01
aI00
aI01
aI00
aI01
aI01
aI01
aI00
aI01
aI00
aI01
aa(lp63
I01
aI00
aI00
aI00
aI00
aI00
aI00
aI00
aI00
aI00
aI01
aa(lp64
I01
aI01
aI01
aI00
aI01
aI00
aI01
aI00
aI01
aI01
aI01
aa(lp65
I01
aI00
aI00
aI00
aI01
aI00
aI01
aI00
aI00
aI00
aI01
aa(lp66
I01
aI00
aI01
aI00
aI00
aI00
aI00
aI00
aI01
aI00
aI01
aa(lp67
I01
aI00
aI01
aI01
aI01
aI00
aI01
aI01
aI01
aI00
aI01
aa(lp68
I01
aI00
aI00
aI00
aI00
aI00
aI00
aI00
aI00
aI00
aI01
aa(lp69
I01
aI01
aI01
aI01
aI01
aI01
aI01
aI01
aI01
aI01
aI01
aasg37
I11
sbsS'totalFood'
p70
I97
sS'layoutText'
p71
(lp72
S'%%%%%%%%%%%%%%%%%%%%'
p73
aS'%o...%........%....%'
p74
aS'%.%%.%.%%%%%%.%.%%.%'
p75
aS'%.%..............%.%'
p76
aS'%.%.%%.%%  %%.%%.%.%'
p77
aS'%......%G  G%......%'
p78
aS'%.%.%%.%%%%%%.%%.%.%'
p79
aS'%.%..............%.%'
p80
aS'%.%%.%.%%%%%%.%.%%.%'
p81
aS'%....%...P....%...o%'
p82
aS'%%%%%%%%%%%%%%%%%%%%'
p83
asbsS'actions'
p84
(lp85
(I0
S'East'
p86
tp87
a(I1
g86
tp88
a(I2
S'West'
p89
tp90
a(I0
g86
tp91
a(I1
S'North'
p92
tp93
a(I2
g89
tp94
a(I0
g89
tp95
a(I1
g92
tp96
a(I2
g89
tp97
a(I0
S'Stop'
p98
tp99
a(I1
g86
tp100
a(I2
g86
tp101
a(I0
g86
tp102
a(I1
S'South'
p103
tp104
a(I2
g92
tp105
a(I0
g86
tp106
a(I1
g89
tp107
a(I2
g86
tp108
a(I0
g98
tp109
a(I1
g103
tp110
a(I2
g92
tp111
a(I0
g89
tp112
a(I1
g89
tp113
a(I2
g86
tp114
a(I0
g86
tp115
a(I1
g86
tp116
a(I2
g86
tp117
a(I0
g86
tp118
a(I1
g86
tp119
a(I2
g86
tp120
a(I0
g98
tp121
a(I1
g86
tp122
a(I2
g86
tp123
a(I0
g92
tp124
a(I1
g89
tp125
a(I2
g86
tp126
a(I0
g98
tp127
a(I1
g89
tp128
a(I2
g92
tp129
a(I0
g103
tp130
a(I1
g89
tp131
a(I2
g92
tp132
a(I0
g92
tp133
a(I1
g86
tp134
a(I2
g86
tp135
a(I0
g103
tp136
a(I1
g92
tp137
a(I2
g86
tp138
a(I0
g98
tp139
a(I1
g86
tp140
a(I2
g86
tp141
a(I0
g89
tp142
a(I1
g103
tp143
a(I2
g103
tp144
a(I0
g86
tp145
a(I1
g89
tp146
a(I2
g103
tp147
a(I0
g98
tp148
a(I1
g92
tp149
a(I2
g103
tp150
a(I0
g92
tp151
a(I1
g92
tp152
a(I2
g103
tp153
a(I0
g103
tp154
a(I1
g89
tp155
a(I2
g103
tp156
a(I0
g89
tp157
a(I1
g89
tp158
a(I2
g103
tp159
a(I0
g86
tp160
a(I1
g89
tp161
a(I2
g103
tp162
a(I0
g89
tp163
a(I1
g89
tp164
a(I2
g103
tp165
a(I0
g86
tp166
a(I1
g89
tp167
a(I2
g89
tp168
a(I0
g98
tp169
a(I1
g92
tp170
a(I2
g89
tp171
a(I0
g98
tp172
a(I1
g92
tp173
a(I2
g89
tp174
a(I0
g92
tp175
a(I1
g89
tp176
a(I2
g92
tp177
a(I0
g92
tp178
a(I1
g89
tp179
a(I2
g92
tp180
a(I0
g103
tp181
a(I1
g89
tp182
a(I2
g86
tp183
a(I0
g92
tp184
a(I1
g103
tp185
a(I2
g92
tp186
a(I0
g86
tp187
a(I1
g103
tp188
a(I2
g92
tp189
a(I0
g98
tp190
a(I1
g103
tp191
a(I2
g89
tp192
a(I0
g89
tp193
a(I1
g103
tp194
a(I2
g89
tp195
a(I0
g86
tp196
a(I1
g86
tp197
a(I2
g89
tp198
a(I0
g89
tp199
a(I1
g86
tp200
a(I2
g92
tp201
a(I0
g86
tp202
a(I1
g92
tp203
a(I2
g92
tp204
a(I0
g89
tp205
a(I1
g92
tp206
a(I2
g86
tp207
a(I0
g89
tp208
a(I1
g86
tp209
a(I2
g86
tp210
a(I0
g89
tp211
a(I1
g86
tp212
a(I2
g86
tp213
a(I0
g98
tp214
a(I1
g86
tp215
a(I2
g103
tp216
a(I0
g89
tp217
a(I1
g103
tp218
a(I2
g103
tp219
a(I0
g89
tp220
a(I1
g103
tp221
a(I2
g89
tp222
a(I0
g89
tp223
a(I1
g103
tp224
a(I2
g89
tp225
a(I0
g86
tp226
a(I1
g103
tp227
a(I2
g89
tp228
a(I0
g86
tp229
a(I1
g89
tp230
a(I2
g92
tp231
a(I0
g98
tp232
a(I1
g89
tp233
a(I2
g92
tp234
a(I0
g98
tp235
a(I1
g103
tp236
a(I2
g89
tp237
a(I0
g98
tp238
a(I1
g103
tp239
a(I2
g89
tp240
a(I0
g86
tp241
a(I1
g89
tp242
a(I2
g89
tp243
a(I0
g86
tp244
a(I1
g89
tp245
a(I2
g103
tp246
a(I0
g86
tp247
a(I1
g89
tp248
a(I2
g103
tp249
a(I0
g86
tp250
a(I1
g92
tp251
a(I2
g89
tp252
a(I0
g89
tp253
a(I1
g92
tp254
a(I2
g89
tp255
a(I0
g86
tp256
a(I1
g92
tp257
a(I2
g86
tp258
a(I0
g86
tp259
a(I1
g92
tp260
a(I2
g92
tp261
a(I0
g86
tp262
a(I1
g86
tp263
a(I2
g86
tp264
a(I0
g92
tp265
a(I1
g86
tp266
a(I2
g92
tp267
a(I0
g103
tp268
a(I1
g86
tp269
a(I2
g86
tp270
a(I0
g89
tp271
a(I1
g86
tp272
a(I2
g86
tp273
a(I0
g103
tp274
a(I1
g86
tp275
a(I2
g86
tp276
a(I0
g92
tp277
a(I1
g103
tp278
a(I2
g103
tp279
a(I0
g103
tp280
a(I1
g103
tp281
a(I2
g103
tp282
a(I0
g98
tp283
a(I1
g103
tp284
a(I2
g86
tp285
a(I0
g98
tp286
a(I1
g103
tp287
a(I2
g86
tp288
a(I0
g103
tp289
a(I1
g86
tp290
a(I2
g86
tp291
a(I0
g86
tp292
a(I1
g86
tp293
a(I2
g86
tp294
a(I0
g86
tp295
a(I1
g86
tp296
a(I2
g86
tp297
a(I0
g89
tp298
a(I1
g86
tp299
a(I2
g103
tp300
a(I0
g98
tp301
a(I1
g86
tp302
a(I2
g103
tp303
a(I0
g86
tp304
a(I1
g86
tp305
a(I2
g103
tp306
a(I0
g86
tp307
a(I1
g86
tp308
a(I2
g103
tp309
a(I0
g98
tp310
a(I1
g86
tp311
a(I2
g89
tp312
a(I0
g92
tp313
a(I1
g92
tp314
a(I2
g89
tp315
a(I0
g98
tp316
a(I1
g92
tp317
a(I2
g89
tp318
a(I0
g92
tp319
a(I1
g92
tp320
a(I2
g86
tp321
a(I0
g98
tp322
a(I1
g92
tp323
a(I2
g92
tp324
a(I0
g98
tp325
a(I1
g92
tp326
a(I2
g86
tp327
a(I0
g92
tp328
a(I1
g92
tp329
a(I2
g103
tp330
a(I0
g98
tp331
a(I1
g92
tp332
a(I2
g89
tp333
a(I0
g98
tp334
a(I1
g92
tp335
a(I2
g92
tp336
a(I0
g92
tp337
a(I1
g92
tp338
a(I2
g86
tp339
a(I0
g92
tp340
a(I1
g92
tp341
a(I2
g92
tp342
a(I0
g92
tp343
a(I1
g92
tp344
a(I2
g89
tp345
a(I0
g92
tp346
a(I1
g92
tp347
a(I2
g89
tp348
a(I0
g92
tp349
a(I1
g89
tp350
a(I2
g89
tp351
a(I0
g98
tp352
a(I1
g89
tp353
a(I2
g89
tp354
a(I0
g103
tp355
a(I1
g89
tp356
a(I2
g89
tp357
a(I0
g98
tp358
a(I1
g89
tp359
a(I2
g89
tp360
a(I0
g98
tp361
a(I1
g89
tp362
a(I2
g89
tp363
a(I0
g98
tp364
a(I1
g89
tp365
a(I2
g103
tp366
a(I0
g98
tp367
a(I1
g89
tp368
a(I2
g103
tp369
a(I0
g103
tp370
a(I1
g89
tp371
a(I2
g89
tp372
a(I0
g92
tp373
a(I1
g103
tp374
a(I2
g89
tp375
a(I0
g103
tp376
a(I1
g103
tp377
a(I2
g92
tp378
a(I0
g92
tp379
a(I1
g86
tp380
a(I2
g92
tp381
a(I0
g92
tp382
a(I1
g86
tp383
a(I2
g92
tp384
a(I0
g98
tp385
a(I1
g92
tp386
a(I2
g92
tp387
a(I0
g103
tp388
a(I1
g92
tp389
a(I2
g86
tp390
a(I0
g103
tp391
a(I1
g89
tp392
a(I2
g86
tp393
a(I0
g92
tp394
a(I1
g89
tp395
a(I2
g86
tp396
a(I0
g98
tp397
a(I1
g103
tp398
a(I2
g103
tp399
a(I0
g103
tp400
a(I1
g103
tp401
a(I2
g103
tp402
a(I0
g98
tp403
a(I1
g86
tp404
a(I2
g86
tp405
a(I0
g103
tp406
a(I1
g86
tp407
a(I2
g86
tp408
a(I0
g92
tp409
a(I1
g103
tp410
a(I2
g92
tp411
a(I0
g98
tp412
a(I1
g103
tp413
a(I2
g92
tp414
a(I0
g98
tp415
a(I1
g89
tp416
a(I2
g86
tp417
a(I0
g98
tp418
a(I1
g89
tp419
a(I2
g86
tp420
a(I0
g92
tp421
a(I1
g89
tp422
a(I2
g86
tp423
a(I0
g103
tp424
a(I1
g89
tp425
a(I2
g86
tp426
a(I0
g103
tp427
a(I1
g86
tp428
a(I2
g86
tp429
a(I0
g92
tp430
a(I1
g92
tp431
a(I2
g86
tp432
a(I0
g98
tp433
a(I1
g86
tp434
a(I2
g86
tp435
a(I0
g92
tp436
a(I1
g92
tp437
a(I2
g103
tp438
a(I0
g98
tp439
a(I1
g86
tp440
a(I2
g103
tp441
a(I0
g103
tp442
a(I1
g86
tp443
a(I2
g89
tp444
a(I0
g92
tp445
a(I1
g86
tp446
a(I2
g89
tp447
a(I0
g92
tp448
a(I1
g92
tp449
a(I2
g89
tp450
a(I0
g89
tp451
a(I1
g92
tp452
a(I2
g103
tp453
a(I0
g98
tp454
a(I1
g89
tp455
a(I2
g89
tp456
a(I0
g86
tp457
a(I1
g89
tp458
a(I2
g103
tp459
a(I0
g98
tp460
a(I1
g89
tp461
a(I2
g89
tp462
a(I0
g89
tp463
a(I1
g89
tp464
a(I2
g86
tp465
a(I0
g89
tp466
a(I1
g89
tp467
a(I2
g86
tp468
a(I0
g86
tp469
a(I1
g89
tp470
a(I2
g92
tp471
a(I0
g89
tp472
a(I1
g89
tp473
a(I2
g92
tp474
a(I0
g98
tp475
a(I1
g103
tp476
a(I2
g86
tp477
a(I0
g86
tp478
a(I1
g103
tp479
a(I2
g86
tp480
a(I0
g98
tp481
a(I1
g103
tp482
a(I2
g86
tp483
a(I0
g98
tp484
a(I1
g103
tp485
a(I2
g103
tp486
a(I0
g89
tp487
a(I1
g103
tp488
a(I2
g103
tp489
a(I0
g98
tp490
a(I1
g103
tp491
a(I2
g103
tp492
a(I0
g86
tp493
a(I1
g103
tp494
a(I2
g103
tp495
a(I0
g86
tp496
a(I1
g103
tp497
a(I2
g86
tp498
a(I0
g103
tp499
a(I1
g86
tp500
a(I2
g86
tp501
a(I0
g103
tp502
a(I1
g86
tp503
a(I2
g103
tp504
a(I0
g103
tp505
a(I1
g86
tp506
a(I2
g103
tp507
a(I0
g92
tp508
a(I1
g86
tp509
a(I2
g86
tp510
a(I0
g92
tp511
a(I1
g86
tp512
a(I2
g86
tp513
a(I0
g103
tp514
a(I1
g86
tp515
a(I2
g86
tp516
a(I0
g92
tp517
a(I1
g86
tp518
a(I2
g92
tp519
a(I0
g92
tp520
a(I1
g92
tp521
a(I2
g92
tp522
a(I0
g89
tp523
a(I1
g92
tp524
a(I2
g92
tp525
a(I0
g86
tp526
a(I1
g92
tp527
a(I2
g92
tp528
a(I0
g89
tp529
a(I1
g92
tp530
a(I2
g89
tp531
a(I0
g89
tp532
a(I1
g86
tp533
a(I2
g89
tp534
a(I0
g98
tp535
a(I1
g86
tp536
a(I2
g103
tp537
a(I0
g89
tp538
a(I1
g86
tp539
a(I2
g103
tp540
a(I0
g98
tp541
a(I1
g103
tp542
a(I2
g89
tp543
a(I0
g103
tp544
a(I1
g103
tp545
a(I2
g89
tp546
a(I0
g98
tp547
a(I1
g89
tp548
a(I2
g89
tp549
a(I0
g92
tp550
a(I1
g89
tp551
a(I2
g89
tp552
a(I0
g103
tp553
a(I1
g89
tp554
a(I2
g89
tp555
a(I0
g103
tp556
a(I1
g103
tp557
a(I2
g89
tp558
a(I0
g98
tp559
a(I1
g103
tp560
a(I2
g89
tp561
a(I0
g86
tp562
a(I1
g89
tp563
a(I2
g89
tp564
a(I0
g103
tp565
a(I1
g89
tp566
a(I2
g89
tp567
a(I0
g92
tp568
a(I1
g89
tp569
a(I2
g89
tp570
a(I0
g103
tp571
a(I1
g89
tp572
a(I2
g103
tp573
a(I0
g98
tp574
a(I1
g89
tp575
a(I2
g103
tp576
a(I0
g103
tp577
a(I1
g89
tp578
a(I2
g86
tp579
a(I0
g89
tp580
a(I1
g89
tp581
a(I2
g86
tp582
a(I0
g89
tp583
a(I1
g92
tp584
a(I2
g86
tp585
a(I0
g89
tp586
a(I1
g92
tp587
a(I2
g86
tp588
a(I0
g98
tp589
a(I1
g92
tp590
a(I2
g86
tp591
a(I0
g98
tp592
a(I1
g92
tp593
a(I2
g86
tp594
a(I0
g103
tp595
a(I1
g92
tp596
a(I2
g86
tp597
a(I0
g92
tp598
a(I1
g92
tp599
a(I2
g92
tp600
a(I0
g92
tp601
a(I1
g92
tp602
a(I2
g92
tp603
a(I0
g98
tp604
a(I1
g92
tp605
a(I2
g92
tp606
a(I0
g98
tp607
a(I1
g86
tp608
a(I2
g92
tp609
a(I0
g103
tp610
as.