(dp1
S'layout'
p2
(ilayout
Layout
p3
(dp4
S'capsules'
p5
(lp6
(I18
I1
tp7
a(I1
I9
tp8
asS'numGhosts'
p9
I2
sS'food'
p10
(igame
Grid
p11
(dp12
S'CELLS_PER_INT'
p13
I30
sS'width'
p14
I20
sS'data'
p15
(lp16
(lp17
I00
aI00
aI00
aI00
aI00
aI00
aI00
aI00
aI00
aI00
aI00
aa(lp18
I00
aI01
aI01
aI01
aI01
aI01
aI01
aI01
aI01
aI00
aI00
aa(lp19
I00
aI01
aI00
aI00
aI00
aI01
aI00
aI00
aI00
aI01
aI00
aa(lp20
I00
aI01
aI00
aI01
aI01
aI01
aI01
aI01
aI00
aI01
aI00
aa(lp21
I00
aI01
aI01
aI01
aI00
aI01
aI00
aI01
aI01
aI01
aI00
aa(lp22
I00
aI00
aI00
aI01
aI00
aI01
aI00
aI01
aI00
aI00
aI00
aa(lp23
I00
aI01
aI01
aI01
aI01
aI01
aI01
aI01
aI01
aI01
aI00
aa(lp24
I00
aI01
aI00
aI01
aI00
aI00
aI00
aI01
aI00
aI01
aI00
aa(lp25
I00
aI01
aI00
aI01
aI00
aI00
aI00
aI01
aI00
aI01
aI00
aa(lp26
I00
aI00
aI00
aI01
aI00
aI00
aI00
aI01
aI00
aI01
aI00
aa(lp27
I00
aI01
aI00
aI01
aI00
aI00
aI00
aI01
aI00
aI01
aI00
aa(lp28
I00
aI01
aI00
aI01
aI00
aI00
aI00
aI01
aI00
aI01
aI00
aa(lp29
I00
aI01
aI00
aI01
aI00
aI00
aI00
aI01
aI00
aI01
aI00
aa(lp30
I00
aI01
aI01
aI01
aI01
aI01
aI01
aI01
aI01
aI01
aI00
aa(lp31
I00
aI00
aI00
aI01
aI00
aI01
aI00
aI01
aI00
aI00
aI00
aa(lp32
I00
aI01
aI01
aI01
aI00
aI01
aI00
aI01
aI01
aI01
aI00
aa(lp33
I00
aI01
aI00
aI01
aI01
aI01
aI01
aI01
aI00
aI01
aI00
aa(lp34
I00
aI01
aI00
aI00
aI00
aI01
aI00
aI00
aI00
aI01
aI00
aa(lp35
I00
aI00
aI01
aI01
aI01
aI01
aI01
aI01
aI01
aI01
aI00
aa(lp36
I00
aI00
aI00
aI00
aI00
aI00
aI00
aI00
aI00
aI00
aI00
aasS'height'
p37
I11
sbsS'agentPositions'
p38
(lp39
(I01
(I9
I1
tp40
tp41
a(I00
(I8
I5
tp42
tp43
a(I00
(I11
I5
tp44
tp45
asg37
I11
sg14
I20
sS'walls'
p46
(igame
Grid
p47
(dp48
g13
I30
sg14
I20
sg15
(lp49
(lp50
I01
aI01
aI01
aI01
aI01
aI01
aI01
aI01
aI01
aI01
aI01
aa(lp51
I01
aI00
aI00
aI00
aI00
aI00
aI00
aI00
aI00
aI00
aI01
aa(lp52
I01
aI00
aI01
aI01
aI01
aI00
aI01
aI01
aI01
aI00
aI01
aa(lp53
I01
aI00
aI01
aI00
aI00
aI00
aI00
aI00
aI01
aI00
aI01
aa(lp54
I01
aI00
aI00
aI00
aI01
aI00
aI01
aI00
aI00
aI00
aI01
aa(lp55
I01
aI01
aI01
aI00
aI01
aI00
aI01
aI00
aI01
aI01
aI01
aa(lp56
I01
aI00
aI00
aI00
aI00
aI00
aI00
aI00
aI00
aI00
aI01
aa(lp57
I01
aI00
aI01
aI00
aI01
aI01
aI01
aI00
aI01
aI00
aI01
aa(lp58
I01
aI00
aI01
aI00
aI01
aI00
aI01
aI00
aI01
aI00
aI01
aa(lp59
I01
aI00
aI01
aI00
aI01
aI00
aI00
aI00
aI01
aI00
aI01
aa(lp60
I01
aI00
aI01
aI00
aI01
aI00
aI00
aI00
aI01
aI00
aI01
aa(lp61
I01
aI00
aI01
aI00
aI01
aI00
aI01
aI00
aI01
aI00
aI01
aa(lp62
I01
aI00
aI01
aI00
aI01
aI01
aI01
aI00
aI01
aI00
aI01
aa(lp63
I01
aI00
aI00
aI00
aI00
aI00
aI00
aI00
aI00
aI00
aI01
aa(lp64
I01
aI01
aI01
aI00
aI01
aI00
aI01
aI00
aI01
aI01
aI01
aa(lp65
I01
aI00
aI00
aI00
aI01
aI00
aI01
aI00
aI00
aI00
aI01
aa(lp66
I01
aI00
aI01
aI00
aI00
aI00
aI00
aI00
aI01
aI00
aI01
aa(lp67
I01
aI00
aI01
aI01
aI01
aI00
aI01
aI01
aI01
aI00
aI01
aa(lp68
I01
aI00
aI00
aI00
aI00
aI00
aI00
aI00
aI00
aI00
aI01
aa(lp69
I01
aI01
aI01
aI01
aI01
aI01
aI01
aI01
aI01
aI01
aI01
aasg37
I11
sbsS'totalFood'
p70
I97
sS'layoutText'
p71
(lp72
S'%%%%%%%%%%%%%%%%%%%%'
p73
aS'%o...%........%....%'
p74
aS'%.%%.%.%%%%%%.%.%%.%'
p75
aS'%.%..............%.%'
p76
aS'%.%.%%.%%  %%.%%.%.%'
p77
aS'%......%G  G%......%'
p78
aS'%.%.%%.%%%%%%.%%.%.%'
p79
aS'%.%..............%.%'
p80
aS'%.%%.%.%%%%%%.%.%%.%'
p81
aS'%....%...P....%...o%'
p82
aS'%%%%%%%%%%%%%%%%%%%%'
p83
asbsS'actions'
p84
(lp85
(I0
S'East'
p86
tp87
a(I1
g86
tp88
a(I2
S'West'
p89
tp90
a(I0
S'Stop'
p91
tp92
a(I1
g86
tp93
a(I2
g89
tp94
a(I0
g89
tp95
a(I1
g86
tp96
a(I2
g89
tp97
a(I0
g91
tp98
a(I1
g89
tp99
a(I2
g86
tp100
a(I0
g89
tp101
a(I1
g89
tp102
a(I2
S'North'
p103
tp104
a(I0
g89
tp105
a(I1
g103
tp106
a(I2
g103
tp107
a(I0
g89
tp108
a(I1
g103
tp109
a(I2
g86
tp110
a(I0
g91
tp111
a(I1
g86
tp112
a(I2
g86
tp113
a(I0
g91
tp114
a(I1
S'South'
p115
tp116
a(I2
g86
tp117
a(I0
g103
tp118
a(I1
g89
tp119
a(I2
g86
tp120
a(I0
g115
tp121
a(I1
g103
tp122
a(I2
g86
tp123
a(I0
g86
tp124
a(I1
g89
tp125
a(I2
g86
tp126
a(I0
g91
tp127
a(I1
g89
tp128
a(I2
g103
tp129
a(I0
g89
tp130
a(I1
g89
tp131
a(I2
g103
tp132
a(I0
g86
tp133
a(I1
g89
tp134
a(I2
g86
tp135
a(I0
g89
tp136
a(I1
g89
tp137
a(I2
g86
tp138
a(I0
g86
tp139
a(I1
g89
tp140
a(I2
g86
tp141
a(I0
g86
tp142
a(I1
g115
tp143
a(I2
g115
tp144
a(I0
g86
tp145
a(I1
g115
tp146
a(I2
g115
tp147
a(I0
g89
tp148
a(I1
g89
tp149
a(I2
g115
tp150
a(I0
g89
tp151
a(I1
g89
tp152
a(I2
g115
tp153
a(I0
g91
tp154
a(I1
g103
tp155
a(I2
g89
tp156
a(I0
g91
tp157
a(I1
g103
tp158
a(I2
g89
tp159
a(I0
g86
tp160
a(I1
g103
tp161
a(I2
g89
tp162
a(I0
g86
tp163
a(I1
g103
tp164
a(I2
g89
tp165
a(I0
g86
tp166
a(I1
g86
tp167
a(I2
g89
tp168
a(I0
g86
tp169
a(I1
g86
tp170
a(I2
g103
tp171
a(I0
g89
tp172
a(I1
g86
tp173
a(I2
g103
tp174
a(I0
g86
tp175
a(I1
g115
tp176
a(I2
g89
tp177
a(I0
g89
tp178
a(I1
g115
tp179
a(I2
g89
tp180
a(I0
g91
tp181
a(I1
g89
tp182
a(I2
g89
tp183
a(I0
g89
tp184
a(I1
g115
tp185
a(I2
g89
tp186
a(I0
g86
tp187
a(I1
g115
tp188
a(I2
g89
tp189
a(I0
g86
tp190
a(I1
g115
tp191
a(I2
g89
tp192
a(I0
g89
tp193
a(I1
g115
tp194
a(I2
g89
tp195
a(I0
g91
tp196
a(I1
g86
tp197
a(I2
g89
tp198
a(I0
g91
tp199
a(I1
g115
tp200
a(I2
g89
tp201
a(I0
g91
tp202
a(I1
g115
tp203
a(I2
g89
tp204
a(I0
g89
tp205
a(I1
g89
tp206
a(I2
g115
tp207
a(I0
g86
tp208
a(I1
g89
tp209
a(I2
g115
tp210
a(I0
g91
tp211
a(I1
g89
tp212
a(I2
g89
tp213
a(I0
g89
tp214
a(I1
g103
tp215
a(I2
g89
tp216
a(I0
g89
tp217
a(I1
g103
tp218
a(I2
g103
tp219
a(I0
g91
tp220
a(I1
g103
tp221
a(I2
g103
tp222
a(I0
g86
tp223
a(I1
g103
tp224
a(I2
g103
tp225
a(I0
g91
tp226
a(I1
g103
tp227
a(I2
g103
tp228
a(I0
g91
tp229
a(I1
g103
tp230
a(I2
g86
tp231
a(I0
g86
tp232
a(I1
g103
tp233
a(I2
g86
tp234
a(I0
g91
tp235
a(I1
g103
tp236
a(I2
g86
tp237
a(I0
g86
tp238
a(I1
g86
tp239
a(I2
g115
tp240
a(I0
g91
tp241
a(I1
g86
tp242
a(I2
g115
tp243
a(I0
g89
tp244
a(I1
g86
tp245
a(I2
g86
tp246
a(I0
g86
tp247
a(I1
g115
tp248
a(I2
g86
tp249
a(I0
g91
tp250
a(I1
g115
tp251
a(I2
g86
tp252
a(I0
g91
tp253
a(I1
g89
tp254
a(I2
g86
tp255
a(I0
g86
tp256
a(I1
g115
tp257
a(I2
g86
tp258
a(I0
g89
tp259
a(I1
g115
tp260
a(I2
g115
tp261
a(I0
g89
tp262
a(I1
g89
tp263
a(I2
g86
tp264
a(I0
g86
tp265
a(I1
g89
tp266
a(I2
g115
tp267
a(I0
g86
tp268
a(I1
g103
tp269
a(I2
g89
tp270
a(I0
g89
tp271
a(I1
g103
tp272
a(I2
g103
tp273
a(I0
g86
tp274
a(I1
g103
tp275
a(I2
g86
tp276
a(I0
g86
tp277
a(I1
g103
tp278
a(I2
g115
tp279
a(I0
g103
tp280
a(I1
g86
tp281
a(I2
g89
tp282
a(I0
g115
tp283
a(I1
g86
tp284
a(I2
g89
tp285
a(I0
g103
tp286
a(I1
g86
tp287
a(I2
g86
tp288
a(I0
g103
tp289
a(I1
g115
tp290
a(I2
g103
tp291
a(I0
g115
tp292
a(I1
g115
tp293
a(I2
g86
tp294
a(I0
g91
tp295
a(I1
g86
tp296
a(I2
g103
tp297
a(I0
g103
tp298
a(I1
g86
tp299
a(I2
g86
tp300
a(I0
g89
tp301
a(I1
g86
tp302
a(I2
g86
tp303
a(I0
g91
tp304
a(I1
g86
tp305
a(I2
g86
tp306
a(I0
g89
tp307
a(I1
g86
tp308
a(I2
g103
tp309
a(I0
g86
tp310
a(I1
g115
tp311
a(I2
g103
tp312
a(I0
g91
tp313
a(I1
g86
tp314
a(I2
g89
tp315
a(I0
g86
tp316
a(I1
g103
tp317
a(I2
g89
tp318
a(I0
g89
tp319
a(I1
g86
tp320
a(I2
g89
tp321
a(I0
g91
tp322
a(I1
g86
tp323
a(I2
g89
tp324
a(I0
g86
tp325
a(I1
g86
tp326
a(I2
g89
tp327
a(I0
g86
tp328
a(I1
g86
tp329
a(I2
g89
tp330
a(I0
g89
tp331
a(I1
g86
tp332
a(I2
g89
tp333
a(I0
g115
tp334
a(I1
g103
tp335
a(I2
g115
tp336
a(I0
g115
tp337
a(I1
g103
tp338
a(I2
g115
tp339
a(I0
g103
tp340
a(I1
g86
tp341
a(I2
g115
tp342
a(I0
g91
tp343
a(I1
g86
tp344
a(I2
g115
tp345
a(I0
g103
tp346
a(I1
g86
tp347
a(I2
g89
tp348
a(I0
g91
tp349
a(I1
g115
tp350
a(I2
g89
tp351
a(I0
g103
tp352
a(I1
g115
tp353
a(I2
g89
tp354
a(I0
g103
tp355
a(I1
g115
tp356
a(I2
g89
tp357
a(I0
g115
tp358
a(I1
g115
tp359
a(I2
g89
tp360
a(I0
g91
tp361
a(I1
g115
tp362
a(I2
g103
tp363
a(I0
g103
tp364
a(I1
g115
tp365
a(I2
g103
tp366
a(I0
g103
tp367
a(I1
g115
tp368
a(I2
g103
tp369
a(I0
g115
tp370
a(I1
g115
tp371
a(I2
g103
tp372
a(I0
g91
tp373
a(I1
g89
tp374
a(I2
g86
tp375
a(I0
g115
tp376
a(I1
g89
tp377
a(I2
g86
tp378
a(I0
g103
tp379
a(I1
g89
tp380
a(I2
g86
tp381
a(I0
g86
tp382
a(I1
g103
tp383
a(I2
g115
tp384
a(I0
g89
tp385
a(I1
g103
tp386
a(I2
g115
tp387
a(I0
g103
tp388
a(I1
g89
tp389
a(I2
g89
tp390
a(I0
g91
tp391
a(I1
g89
tp392
a(I2
g115
tp393
a(I0
g91
tp394
a(I1
g115
tp395
a(I2
g115
tp396
a(I0
g115
tp397
a(I1
g115
tp398
a(I2
g115
tp399
a(I0
g103
tp400
a(I1
g89
tp401
a(I2
g115
tp402
a(I0
g103
tp403
a(I1
g89
tp404
a(I2
g86
tp405
a(I0
g115
tp406
a(I1
g89
tp407
a(I2
g86
tp408
a(I0
g115
tp409
a(I1
g89
tp410
a(I2
g86
tp411
a(I0
g86
tp412
a(I1
g89
tp413
a(I2
g86
tp414
a(I0
g89
tp415
a(I1
g89
tp416
a(I2
g86
tp417
a(I0
g115
tp418
a(I1
g89
tp419
a(I2
g86
tp420
a(I0
g103
tp421
a(I1
g103
tp422
a(I2
g86
tp423
a(I0
g86
tp424
a(I1
g103
tp425
a(I2
g86
tp426
a(I0
g91
tp427
a(I1
g86
tp428
a(I2
g86
tp429
a(I0
g89
tp430
a(I1
g86
tp431
a(I2
g86
tp432
a(I0
g86
tp433
a(I1
g86
tp434
a(I2
g115
tp435
a(I0
g86
tp436
a(I1
g86
tp437
a(I2
g115
tp438
a(I0
g89
tp439
a(I1
g86
tp440
a(I2
g89
tp441
a(I0
g89
tp442
a(I1
g86
tp443
a(I2
g89
tp444
a(I0
g115
tp445
a(I1
g86
tp446
a(I2
g89
tp447
a(I0
g103
tp448
a(I1
g86
tp449
a(I2
g89
tp450
a(I0
g86
tp451
a(I1
g86
tp452
a(I2
g89
tp453
a(I0
g86
tp454
a(I1
g86
tp455
a(I2
g89
tp456
a(I0
g86
tp457
a(I1
g103
tp458
a(I2
g89
tp459
a(I0
g115
tp460
as.